; Function Attrs: mustprogress nofree norecurse nosync nounwind willreturn memory(argmem: read) uwtable
define hidden noundef zeroext i1 @_ZNK15static_features15internal_familyERK6symbol(ptr nocapture noundef nonnull readonly align 8 dereferenceable(792) %this, ptr nocapture noundef nonnull readonly align 8 dereferenceable(8) %f_name) local_unnamed_addr #5 align 2 {
entry:
  %m_label_sym = getelementptr inbounds i8, ptr %this, i64 760
  %0 = load ptr, ptr %f_name, align 8
  %1 = load ptr, ptr %m_label_sym, align 8
  %cmp.i = icmp eq ptr %0, %1
  %m_pattern_sym = getelementptr inbounds i8, ptr %this, i64 768
  %2 = load ptr, ptr %m_pattern_sym, align 8
  %cmp.i3 = icmp eq ptr %0, %2
  %or.cond = select i1 %cmp.i, i1 true, i1 %cmp.i3
  br i1 %or.cond, label %lor.end, label %lor.rhs

lor.rhs:                                          ; preds = %entry
  %m_expr_list_sym = getelementptr inbounds i8, ptr %this, i64 776
  %3 = load ptr, ptr %m_expr_list_sym, align 8
  %cmp.i4 = icmp eq ptr %0, %3
  br label %lor.end

lor.end:                                          ; preds = %lor.rhs, %entry
  %4 = phi i1 [ true, %entry ], [ %cmp.i4, %lor.rhs ]
  ret i1 %4
}